; Function Attrs: nounwind uwtable
define ptr @Gia_ManRehash(ptr noundef readonly captures(none) %0, i32 noundef %1) local_unnamed_addr #2 {
  %3 = getelementptr i8, ptr %0, i64 24
  %.val36 = load i32, ptr %3, align 8, !tbaa !34
  %4 = tail call ptr @Gia_ManStart(i32 noundef %.val36) #26
  %5 = load ptr, ptr %0, align 8, !tbaa !57
  %.not.i = icmp eq ptr %5, null
  br i1 %.not.i, label %Abc_UtilStrsav.exit, label %6

6:                                                ; preds = %2
  %7 = tail call i64 @strlen(ptr noundef nonnull readonly dereferenceable(1) %5) #27
  %8 = add i64 %7, 1
  %9 = tail call noalias ptr @malloc(i64 noundef %8) #25
  %10 = tail call ptr @strcpy(ptr noundef nonnull dereferenceable(1) %9, ptr noundef nonnull readonly dereferenceable(1) %5) #26
  br label %Abc_UtilStrsav.exit

Abc_UtilStrsav.exit:                              ; preds = %2, %6
  %11 = phi ptr [ %9, %6 ], [ null, %2 ]
  store ptr %11, ptr %4, align 8, !tbaa !57
  %12 = getelementptr inbounds nuw i8, ptr %0, i64 8
  %13 = load ptr, ptr %12, align 8, !tbaa !58
  %.not.i42 = icmp eq ptr %13, null
  br i1 %.not.i42, label %Abc_UtilStrsav.exit43, label %14

14:                                               ; preds = %Abc_UtilStrsav.exit
  %15 = tail call i64 @strlen(ptr noundef nonnull readonly dereferenceable(1) %13) #27
  %16 = add i64 %15, 1
  %17 = tail call noalias ptr @malloc(i64 noundef %16) #25
  %18 = tail call ptr @strcpy(ptr noundef nonnull dereferenceable(1) %17, ptr noundef nonnull readonly dereferenceable(1) %13) #26
  br label %Abc_UtilStrsav.exit43

Abc_UtilStrsav.exit43:                            ; preds = %Abc_UtilStrsav.exit, %14
  %19 = phi ptr [ %17, %14 ], [ null, %Abc_UtilStrsav.exit ]
  %20 = getelementptr inbounds nuw i8, ptr %4, i64 8
  store ptr %19, ptr %20, align 8, !tbaa !58
  %21 = getelementptr inbounds nuw i8, ptr %4, i64 112
  store i32 %1, ptr %21, align 8, !tbaa !51
  tail call void @Gia_ManHashAlloc(ptr noundef nonnull %4)
  %22 = getelementptr i8, ptr %0, i64 32
  %.val38 = load ptr, ptr %22, align 8, !tbaa !12
  %23 = getelementptr inbounds nuw i8, ptr %.val38, i64 8
  store i32 0, ptr %23, align 4, !tbaa !59
  %24 = load i32, ptr %3, align 8, !tbaa !34
  %25 = icmp sgt i32 %24, 0
  br i1 %25, label %.lr.ph, label %.critedge

.lr.ph:                                           ; preds = %Abc_UtilStrsav.exit43, %64
  %indvars.iv = phi i64 [ %indvars.iv.next, %64 ], [ 0, %Abc_UtilStrsav.exit43 ]
  %.val = load ptr, ptr %22, align 8, !tbaa !12
  %26 = getelementptr inbounds nuw %struct.Gia_Obj_t_, ptr %.val, i64 %indvars.iv
  %.not = icmp eq ptr %.val, null
  br i1 %.not, label %.critedge, label %27

27:                                               ; preds = %.lr.ph
  %.val37 = load i64, ptr %26, align 4
  %28 = and i64 %.val37, 2147483648
  %.not.i44 = icmp eq i64 %28, 0
  %29 = and i64 %.val37, 536870911
  %30 = icmp ne i64 %29, 536870911
  %narrow.i = and i1 %.not.i44, %30
  br i1 %narrow.i, label %31, label %49

31:                                               ; preds = %27
  %32 = sub nsw i64 0, %29
  %33 = getelementptr inbounds %struct.Gia_Obj_t_, ptr %26, i64 %32, i32 1
  %34 = load i32, ptr %33, align 4, !tbaa !59
  %35 = trunc i64 %.val37 to i32
  %36 = lshr i32 %35, 29
  %37 = and i32 %36, 1
  %38 = xor i32 %34, %37
  %39 = lshr i64 %.val37, 32
  %40 = and i64 %39, 536870911
  %41 = sub nsw i64 0, %40
  %42 = getelementptr inbounds %struct.Gia_Obj_t_, ptr %26, i64 %41, i32 1
  %43 = load i32, ptr %42, align 4, !tbaa !59
  %44 = lshr i64 %.val37, 61
  %45 = trunc nuw nsw i64 %44 to i32
  %46 = and i32 %45, 1
  %47 = xor i32 %43, %46
  %48 = tail call i32 @Gia_ManHashAnd(ptr noundef nonnull %4, i32 noundef %38, i32 noundef %47)
  br label %.sink.split

49:                                               ; preds = %27
  %50 = and i64 %.val37, 2684354559
  %narrow.i45.not = icmp eq i64 %50, 2684354559
  br i1 %narrow.i45.not, label %51, label %53

51:                                               ; preds = %49
  %52 = tail call fastcc i32 @Gia_ManAppendCi(ptr noundef nonnull %4)
  br label %.sink.split

53:                                               ; preds = %49
  %.not.i46 = icmp ne i64 %28, 0
  %narrow.i47 = and i1 %.not.i46, %30
  br i1 %narrow.i47, label %54, label %64

54:                                               ; preds = %53
  %55 = sub nsw i64 0, %29
  %56 = getelementptr inbounds %struct.Gia_Obj_t_, ptr %26, i64 %55, i32 1
  %57 = load i32, ptr %56, align 4, !tbaa !59
  %58 = trunc i64 %.val37 to i32
  %59 = lshr i32 %58, 29
  %60 = and i32 %59, 1
  %61 = xor i32 %57, %60
  %62 = tail call fastcc i32 @Gia_ManAppendCo(ptr noundef nonnull %4, i32 noundef %61)
  br label %.sink.split

.sink.split:                                      ; preds = %51, %54, %31
  %.sink = phi i32 [ %48, %31 ], [ %62, %54 ], [ %52, %51 ]
  %63 = getelementptr inbounds nuw i8, ptr %26, i64 8
  store i32 %.sink, ptr %63, align 4, !tbaa !59
  br label %64

64:                                               ; preds = %.sink.split, %53
  %indvars.iv.next = add nuw nsw i64 %indvars.iv, 1
  %65 = load i32, ptr %3, align 8, !tbaa !34
  %66 = sext i32 %65 to i64
  %67 = icmp slt i64 %indvars.iv.next, %66
  br i1 %67, label %.lr.ph, label %.critedge, !llvm.loop !61

.critedge:                                        ; preds = %.lr.ph, %64, %Abc_UtilStrsav.exit43
  %68 = getelementptr inbounds nuw i8, ptr %4, i64 96
  %69 = getelementptr inbounds nuw i8, ptr %4, i64 104
  %70 = load ptr, ptr %69, align 8, !tbaa !10
  %.not.i.i = icmp eq ptr %70, null
  br i1 %.not.i.i, label %Vec_IntErase.exit.i, label %71

71:                                               ; preds = %.critedge
  tail call void @free(ptr noundef nonnull %70) #26
  store ptr null, ptr %69, align 8, !tbaa !10
  br label %Vec_IntErase.exit.i

Vec_IntErase.exit.i:                              ; preds = %71, %.critedge
  %72 = getelementptr inbounds nuw i8, ptr %4, i64 100
  store i32 0, ptr %72, align 4, !tbaa !3
  store i32 0, ptr %68, align 8, !tbaa !40
  %73 = getelementptr inbounds nuw i8, ptr %4, i64 88
  %74 = load ptr, ptr %73, align 8, !tbaa !10
  %.not.i2.i = icmp eq ptr %74, null
  br i1 %.not.i2.i, label %Gia_ManHashStop.exit, label %75

75:                                               ; preds = %Vec_IntErase.exit.i
  tail call void @free(ptr noundef nonnull %74) #26
  store ptr null, ptr %73, align 8, !tbaa !10
  br label %Gia_ManHashStop.exit

Gia_ManHashStop.exit:                             ; preds = %Vec_IntErase.exit.i, %75
  %76 = getelementptr inbounds nuw i8, ptr %4, i64 80
  %77 = getelementptr inbounds nuw i8, ptr %4, i64 84
  store i32 0, ptr %77, align 4, !tbaa !3
  store i32 0, ptr %76, align 8, !tbaa !40
  store i32 0, ptr %21, align 8, !tbaa !51
  %78 = getelementptr i8, ptr %0, i64 16
  %.val41 = load i32, ptr %78, align 8, !tbaa !62
  tail call void @Gia_ManSetRegNum(ptr noundef nonnull %4, i32 noundef %.val41) #26
  %79 = tail call ptr @Gia_ManCleanup(ptr noundef nonnull %4) #26
  tail call void @Gia_ManStop(ptr noundef nonnull %4) #26
  ret ptr %79
}